; Function Attrs: mustprogress nounwind uwtable
define noundef ptr @_ZN7glslang13TIntermediate13growAggregateEP11TIntermNodeS2_RKNS_10TSourceLocE(ptr nocapture noundef nonnull readnone align 8 dereferenceable(2024) %0, ptr noundef %1, ptr noundef %2, ptr noundef nonnull align 8 dereferenceable(24) %3) local_unnamed_addr #0 align 2 {
  %5 = tail call noundef ptr @_ZN7glslang13TIntermediate13growAggregateEP11TIntermNodeS2_(ptr nonnull align 8 poison, ptr noundef %1, ptr noundef %2)
  %.not = icmp eq ptr %5, null
  br i1 %.not, label %10, label %6

6:                                                ; preds = %4
  %7 = load ptr, ptr %5, align 8
  %8 = getelementptr inbounds i8, ptr %7, i64 8
  %9 = load ptr, ptr %8, align 8
  tail call void %9(ptr noundef nonnull align 8 dereferenceable(32) %5, ptr noundef nonnull align 8 dereferenceable(24) %3) #17
  br label %10

10:                                               ; preds = %6, %4
  ret ptr %5
}